#include <math.h>
#include <stdio.h>
#include <stdlib.h>
#include <string.h>
#include <iostream>
using namespace std;


int main()
{
	int a[16];//???0????????????
	int num = 0;
	int s;//??2??????
	int i , j;//?????
	cin >> a[num];
	while (a[num] != -1)
	{
		while (a[num] != 0)
		{
			num++;
			cin >> a[num];
		}
		num--;//?????0????
		s = 0;
		for (i = 0; i <= num; i++)
			for (j = 0; j <= num; j++)
				if (a[i] == a[j] * 2)
					s++;
		cout << s << endl;
		num = 0;
		cin >> a[num];
	}

}
