; ModuleID = '12/1221.cpp'
source_filename = "12/1221.cpp"
target datalayout = "e-m:e-p270:32:32-p271:32:32-p272:64:64-i64:64-f80:128-n8:16:32:64-S128"
target triple = "x86_64-pc-linux-gnu"

%"class.std::ios_base::Init" = type { i8 }
%"class.std::basic_istream" = type { i32 (...)**, i64, %"class.std::basic_ios" }
%"class.std::basic_ios" = type { %"class.std::ios_base", %"class.std::basic_ostream"*, i8, i8, %"class.std::basic_streambuf"*, %"class.std::ctype"*, %"class.std::num_put"*, %"class.std::num_get"* }
%"class.std::ios_base" = type { i32 (...)**, i64, i64, i32, i32, i32, %"struct.std::ios_base::_Callback_list"*, %"struct.std::ios_base::_Words", [8 x %"struct.std::ios_base::_Words"], i32, %"struct.std::ios_base::_Words"*, %"class.std::locale" }
%"struct.std::ios_base::_Callback_list" = type { %"struct.std::ios_base::_Callback_list"*, void (i32, %"class.std::ios_base"*, i32)*, i32, i32 }
%"struct.std::ios_base::_Words" = type { i8*, i64 }
%"class.std::locale" = type { %"class.std::locale::_Impl"* }
%"class.std::locale::_Impl" = type { i32, %"class.std::locale::facet"**, i64, %"class.std::locale::facet"**, i8** }
%"class.std::locale::facet" = type <{ i32 (...)**, i32, [4 x i8] }>
%"class.std::basic_ostream" = type { i32 (...)**, %"class.std::basic_ios" }
%"class.std::basic_streambuf" = type { i32 (...)**, i8*, i8*, i8*, i8*, i8*, i8*, %"class.std::locale" }
%"class.std::ctype" = type <{ %"class.std::locale::facet.base", [4 x i8], %struct.__locale_struct*, i8, [7 x i8], i32*, i32*, i16*, i8, [256 x i8], [256 x i8], i8, [6 x i8] }>
%"class.std::locale::facet.base" = type <{ i32 (...)**, i32 }>
%struct.__locale_struct = type { [13 x %struct.__locale_data*], i16*, i32*, i32*, [13 x i8*] }
%struct.__locale_data = type opaque
%"class.std::num_put" = type { %"class.std::locale::facet.base", [4 x i8] }
%"class.std::num_get" = type { %"class.std::locale::facet.base", [4 x i8] }

@_ZStL8__ioinit = internal global %"class.std::ios_base::Init" zeroinitializer, align 1
@__dso_handle = external hidden global i8
@_ZSt3cin = external dso_local global %"class.std::basic_istream", align 8
@_ZSt4cout = external dso_local global %"class.std::basic_ostream", align 8
@llvm.global_ctors = appending global [1 x { i32, void ()*, i8* }] [{ i32, void ()*, i8* } { i32 65535, void ()* @_GLOBAL__sub_I_1221.cpp, i8* null }]

; Function Attrs: noinline uwtable
define internal void @__cxx_global_var_init() #0 section ".text.startup" {
  call void @_ZNSt8ios_base4InitC1Ev(%"class.std::ios_base::Init"* @_ZStL8__ioinit)
  %1 = call i32 @__cxa_atexit(void (i8*)* bitcast (void (%"class.std::ios_base::Init"*)* @_ZNSt8ios_base4InitD1Ev to void (i8*)*), i8* getelementptr inbounds (%"class.std::ios_base::Init", %"class.std::ios_base::Init"* @_ZStL8__ioinit, i32 0, i32 0), i8* @__dso_handle) #3
  ret void
}

declare dso_local void @_ZNSt8ios_base4InitC1Ev(%"class.std::ios_base::Init"*) unnamed_addr #1

; Function Attrs: nounwind
declare dso_local void @_ZNSt8ios_base4InitD1Ev(%"class.std::ios_base::Init"*) unnamed_addr #2

; Function Attrs: nounwind
declare dso_local i32 @__cxa_atexit(void (i8*)*, i8*, i8*) #3

; Function Attrs: noinline norecurse uwtable
define dso_local i32 @main() #4 {
  %1 = alloca i32, align 4
  %2 = alloca [16 x i32], align 16
  %3 = alloca i32, align 4
  %4 = alloca i32, align 4
  %5 = alloca i32, align 4
  %6 = alloca i32, align 4
  store i32 0, i32* %1, align 4
  store i32 0, i32* %3, align 4
  %7 = load i32, i32* %3, align 4
  %8 = sext i32 %7 to i64
  %9 = getelementptr inbounds [16 x i32], [16 x i32]* %2, i64 0, i64 %8
  %10 = call dereferenceable(280) %"class.std::basic_istream"* @_ZNSirsERi(%"class.std::basic_istream"* @_ZSt3cin, i32* dereferenceable(4) %9)
  br label %11

11:                                               ; preds = %65, %0
  %12 = load i32, i32* %3, align 4
  %13 = sext i32 %12 to i64
  %14 = getelementptr inbounds [16 x i32], [16 x i32]* %2, i64 0, i64 %13
  %15 = load i32, i32* %14, align 4
  %16 = icmp ne i32 %15, -1
  br i1 %16, label %17, label %73

17:                                               ; preds = %11
  br label %18

18:                                               ; preds = %24, %17
  %19 = load i32, i32* %3, align 4
  %20 = sext i32 %19 to i64
  %21 = getelementptr inbounds [16 x i32], [16 x i32]* %2, i64 0, i64 %20
  %22 = load i32, i32* %21, align 4
  %23 = icmp ne i32 %22, 0
  br i1 %23, label %24, label %31

24:                                               ; preds = %18
  %25 = load i32, i32* %3, align 4
  %26 = add nsw i32 %25, 1
  store i32 %26, i32* %3, align 4
  %27 = load i32, i32* %3, align 4
  %28 = sext i32 %27 to i64
  %29 = getelementptr inbounds [16 x i32], [16 x i32]* %2, i64 0, i64 %28
  %30 = call dereferenceable(280) %"class.std::basic_istream"* @_ZNSirsERi(%"class.std::basic_istream"* @_ZSt3cin, i32* dereferenceable(4) %29)
  br label %18

31:                                               ; preds = %18
  %32 = load i32, i32* %3, align 4
  %33 = add nsw i32 %32, -1
  store i32 %33, i32* %3, align 4
  store i32 0, i32* %4, align 4
  store i32 0, i32* %5, align 4
  br label %34

34:                                               ; preds = %62, %31
  %35 = load i32, i32* %5, align 4
  %36 = load i32, i32* %3, align 4
  %37 = icmp sle i32 %35, %36
  br i1 %37, label %38, label %65

38:                                               ; preds = %34
  store i32 0, i32* %6, align 4
  br label %39

39:                                               ; preds = %58, %38
  %40 = load i32, i32* %6, align 4
  %41 = load i32, i32* %3, align 4
  %42 = icmp sle i32 %40, %41
  br i1 %42, label %43, label %61

43:                                               ; preds = %39
  %44 = load i32, i32* %5, align 4
  %45 = sext i32 %44 to i64
  %46 = getelementptr inbounds [16 x i32], [16 x i32]* %2, i64 0, i64 %45
  %47 = load i32, i32* %46, align 4
  %48 = load i32, i32* %6, align 4
  %49 = sext i32 %48 to i64
  %50 = getelementptr inbounds [16 x i32], [16 x i32]* %2, i64 0, i64 %49
  %51 = load i32, i32* %50, align 4
  %52 = mul nsw i32 %51, 2
  %53 = icmp eq i32 %47, %52
  br i1 %53, label %54, label %57

54:                                               ; preds = %43
  %55 = load i32, i32* %4, align 4
  %56 = add nsw i32 %55, 1
  store i32 %56, i32* %4, align 4
  br label %57

57:                                               ; preds = %54, %43
  br label %58

58:                                               ; preds = %57
  %59 = load i32, i32* %6, align 4
  %60 = add nsw i32 %59, 1
  store i32 %60, i32* %6, align 4
  br label %39

61:                                               ; preds = %39
  br label %62

62:                                               ; preds = %61
  %63 = load i32, i32* %5, align 4
  %64 = add nsw i32 %63, 1
  store i32 %64, i32* %5, align 4
  br label %34

65:                                               ; preds = %34
  %66 = load i32, i32* %4, align 4
  %67 = call dereferenceable(272) %"class.std::basic_ostream"* @_ZNSolsEi(%"class.std::basic_ostream"* @_ZSt4cout, i32 %66)
  %68 = call dereferenceable(272) %"class.std::basic_ostream"* @_ZNSolsEPFRSoS_E(%"class.std::basic_ostream"* %67, %"class.std::basic_ostream"* (%"class.std::basic_ostream"*)* @_ZSt4endlIcSt11char_traitsIcEERSt13basic_ostreamIT_T0_ES6_)
  store i32 0, i32* %3, align 4
  %69 = load i32, i32* %3, align 4
  %70 = sext i32 %69 to i64
  %71 = getelementptr inbounds [16 x i32], [16 x i32]* %2, i64 0, i64 %70
  %72 = call dereferenceable(280) %"class.std::basic_istream"* @_ZNSirsERi(%"class.std::basic_istream"* @_ZSt3cin, i32* dereferenceable(4) %71)
  br label %11

73:                                               ; preds = %11
  %74 = load i32, i32* %1, align 4
  ret i32 %74
}

declare dso_local dereferenceable(280) %"class.std::basic_istream"* @_ZNSirsERi(%"class.std::basic_istream"*, i32* dereferenceable(4)) #1

declare dso_local dereferenceable(272) %"class.std::basic_ostream"* @_ZNSolsEi(%"class.std::basic_ostream"*, i32) #1

declare dso_local dereferenceable(272) %"class.std::basic_ostream"* @_ZNSolsEPFRSoS_E(%"class.std::basic_ostream"*, %"class.std::basic_ostream"* (%"class.std::basic_ostream"*)*) #1

declare dso_local dereferenceable(272) %"class.std::basic_ostream"* @_ZSt4endlIcSt11char_traitsIcEERSt13basic_ostreamIT_T0_ES6_(%"class.std::basic_ostream"* dereferenceable(272)) #1

; Function Attrs: noinline uwtable
define internal void @_GLOBAL__sub_I_1221.cpp() #0 section ".text.startup" {
  call void @__cxx_global_var_init()
  ret void
}


!llvm.module.flags = !{!0}
!llvm.ident = !{!1}

!0 = !{i32 1, !"wchar_size", i32 4}
!1 = !{!"clang version 10.0.0-4ubuntu1 "}
